target datalayout = "e-m:e-p270:32:32-p271:32:32-p272:64:64-i64:64-i128:128-f80:128-n8:16:32:64-S128"
target triple = "x86_64-pc-linux-gnu"

%struct.QMetaObject = type { %struct.anon }
%struct.anon = type { %"struct.QMetaObject::SuperData", ptr, ptr, ptr, ptr, ptr }
%"struct.QMetaObject::SuperData" = type { ptr }
%class.QualityMapperPlugin = type <{ %class.QObject, %class.EditTool, ptr, %class.QPoint, i8, [7 x i8] }>
%class.QObject = type { ptr, %class.QScopedPointer }
%class.QScopedPointer = type { ptr }
%class.EditTool = type { %class.MeshLabPluginLogger }
%class.MeshLabPluginLogger = type { ptr, ptr }
%class.QPoint = type { i32, i32 }
%class.QString = type { ptr }
%class.QFlags.143 = type { i32 }
%"class.QMetaObject::Connection" = type { ptr }

@_ZN19QualityMapperPlugin16staticMetaObjectE = external global %struct.QMetaObject, align 8
@.str.7 = private unnamed_addr constant [15 x i8] c"Quality Mapper\00", align 1
@.str.8 = private unnamed_addr constant [32 x i8] c"The model has no vertex quality\00", align 1
@.str.9 = private unnamed_addr constant [17 x i8] c"2closingDialog()\00", align 1
@.str.10 = private unnamed_addr constant [11 x i8] c"1endEdit()\00", align 1

; Function Attrs: mustprogress nounwind uwtable
define linkonce_odr void @_ZN6QFlagsIN11QMessageBox14StandardButtonEEC2ES1_(ptr noundef nonnull align 4 dereferenceable(4) %0, i32 noundef %1) unnamed_addr #4 comdat align 2 {
  %3 = alloca ptr, align 8
  %4 = alloca i32, align 4
  store ptr %0, ptr %3, align 8
  store i32 %1, ptr %4, align 4
  %5 = load ptr, ptr %3, align 8
  %6 = getelementptr inbounds %class.QFlags.143, ptr %5, i32 0, i32 0
  %7 = load i32, ptr %4, align 4
  store i32 %7, ptr %6, align 4
  ret void
}

; Function Attrs: mustprogress uwtable
define linkonce_odr void @_ZN19QualityMapperPlugin2trEPKcS1_i(ptr dead_on_unwind noalias writable sret(%class.QString) align 8 %0, ptr noundef %1, ptr noundef %2, i32 noundef %3) #5 comdat align 2 {
  %5 = alloca ptr, align 8
  %6 = alloca ptr, align 8
  %7 = alloca ptr, align 8
  %8 = alloca i32, align 4
  store ptr %0, ptr %5, align 8
  store ptr %1, ptr %6, align 8
  store ptr %2, ptr %7, align 8
  store i32 %3, ptr %8, align 4
  %9 = load ptr, ptr %6, align 8
  %10 = load ptr, ptr %7, align 8
  %11 = load i32, ptr %8, align 4
  call void @_ZNK11QMetaObject2trEPKcS1_i(ptr dead_on_unwind writable sret(%class.QString) align 8 %0, ptr noundef nonnull align 8 dereferenceable(48) @_ZN19QualityMapperPlugin16staticMetaObjectE, ptr noundef %9, ptr noundef %10, i32 noundef %11)
  ret void
}

; Function Attrs: mustprogress uwtable
define noundef zeroext i1 @_ZN19QualityMapperPlugin9startEditER9MeshModelP6GLAreaP26MLSceneGLSharedDataContext(ptr noundef nonnull align 8 dereferenceable(49) %0, ptr noundef nonnull align 8 dereferenceable(1288) %1, ptr noundef %2, ptr noundef %3) unnamed_addr #5 align 2 personality ptr @__gxx_personality_v0 {
  %5 = alloca i1, align 1
  %6 = alloca ptr, align 8
  %7 = alloca ptr, align 8
  %8 = alloca ptr, align 8
  %9 = alloca ptr, align 8
  %10 = alloca %class.QString, align 8
  %11 = alloca %class.QString, align 8
  %12 = alloca ptr, align 8
  %13 = alloca i32, align 4
  %14 = alloca %class.QFlags.143, align 4
  %15 = alloca %"class.QMetaObject::Connection", align 8
  store ptr %0, ptr %6, align 8
  store ptr %1, ptr %7, align 8
  store ptr %2, ptr %8, align 8
  store ptr %3, ptr %9, align 8
  %16 = load ptr, ptr %6, align 8
  %17 = call noundef zeroext i1 @_ZN19GLExtensionsManager34initializeGLextensions_notThrowingEv()
  br i1 %17, label %19, label %18

18:                                               ; preds = %4
  store i1 false, ptr %5, align 1
  br label %70

19:                                               ; preds = %4
  %20 = load ptr, ptr %7, align 8
  %21 = call noundef zeroext i1 @_ZNK9MeshModel11hasDataMaskEi(ptr noundef nonnull align 8 dereferenceable(1288) %20, i32 noundef 16)
  br i1 %21, label %38, label %22

22:                                               ; preds = %19
  %23 = load ptr, ptr %8, align 8
  call void @_ZN19QualityMapperPlugin2trEPKcS1_i(ptr dead_on_unwind writable sret(%class.QString) align 8 %10, ptr noundef @.str.7, ptr noundef null, i32 noundef -1)
  invoke void @_ZN19QualityMapperPlugin2trEPKcS1_i(ptr dead_on_unwind writable sret(%class.QString) align 8 %11, ptr noundef @.str.8, ptr noundef null, i32 noundef -1)
          to label %24 unwind label %29

24:                                               ; preds = %22
  call void @_ZN6QFlagsIN11QMessageBox14StandardButtonEEC2ES1_(ptr noundef nonnull align 4 dereferenceable(4) %14, i32 noundef 1024) #3
  %25 = getelementptr inbounds %class.QFlags.143, ptr %14, i32 0, i32 0
  %26 = load i32, ptr %25, align 4
  %27 = invoke noundef i32 @_ZN11QMessageBox7warningEP7QWidgetRK7QStringS4_6QFlagsINS_14StandardButtonEES6_(ptr noundef %23, ptr noundef nonnull align 8 dereferenceable(8) %10, ptr noundef nonnull align 8 dereferenceable(8) %11, i32 %26, i32 noundef 0)
          to label %28 unwind label %33

28:                                               ; preds = %24
  call void @_ZN7QStringD2Ev(ptr noundef nonnull align 8 dereferenceable(8) %11) #3
  call void @_ZN7QStringD2Ev(ptr noundef nonnull align 8 dereferenceable(8) %10) #3
  store i1 false, ptr %5, align 1
  br label %70

29:                                               ; preds = %22
  %30 = landingpad { ptr, i32 }
          cleanup
  %31 = extractvalue { ptr, i32 } %30, 0
  store ptr %31, ptr %12, align 8
  %32 = extractvalue { ptr, i32 } %30, 1
  store i32 %32, ptr %13, align 4
  br label %37

33:                                               ; preds = %24
  %34 = landingpad { ptr, i32 }
          cleanup
  %35 = extractvalue { ptr, i32 } %34, 0
  store ptr %35, ptr %12, align 8
  %36 = extractvalue { ptr, i32 } %34, 1
  store i32 %36, ptr %13, align 4
  call void @_ZN7QStringD2Ev(ptr noundef nonnull align 8 dereferenceable(8) %11) #3
  br label %37

37:                                               ; preds = %33, %29
  call void @_ZN7QStringD2Ev(ptr noundef nonnull align 8 dereferenceable(8) %10) #3
  br label %72

38:                                               ; preds = %19
  %39 = load ptr, ptr %7, align 8
  call void @_ZN9MeshModel14updateDataMaskEi(ptr noundef nonnull align 8 dereferenceable(1288) %39, i32 noundef 24)
  %40 = getelementptr inbounds %class.QualityMapperPlugin, ptr %16, i32 0, i32 2
  %41 = load ptr, ptr %40, align 8
  %42 = icmp eq ptr %41, null
  br i1 %42, label %43, label %66

43:                                               ; preds = %38
  %44 = call noalias noundef nonnull ptr @_Znwm(i64 noundef 824) #15
  %45 = load ptr, ptr %8, align 8
  %46 = invoke noundef ptr @_ZNK7QWidget6windowEv(ptr noundef nonnull align 8 dereferenceable(48) %45)
          to label %47 unwind label %57

47:                                               ; preds = %43
  %48 = load ptr, ptr %7, align 8
  %49 = load ptr, ptr %8, align 8
  %50 = load ptr, ptr %9, align 8
  invoke void @_ZN19QualityMapperDialogC1EP7QWidgetR9MeshModelP6GLAreaP26MLSceneGLSharedDataContext(ptr noundef nonnull align 8 dereferenceable(824) %44, ptr noundef %46, ptr noundef nonnull align 8 dereferenceable(1288) %48, ptr noundef %49, ptr noundef %50)
          to label %51 unwind label %57

51:                                               ; preds = %47
  %52 = getelementptr inbounds %class.QualityMapperPlugin, ptr %16, i32 0, i32 2
  store ptr %44, ptr %52, align 8
  %53 = getelementptr inbounds %class.QualityMapperPlugin, ptr %16, i32 0, i32 2
  %54 = load ptr, ptr %53, align 8
  %55 = call noundef zeroext i1 @_ZN19QualityMapperDialog22initEqualizerHistogramEv(ptr noundef nonnull align 8 dereferenceable(824) %54)
  br i1 %55, label %61, label %56

56:                                               ; preds = %51
  store i1 false, ptr %5, align 1
  br label %70

57:                                               ; preds = %47, %43
  %58 = landingpad { ptr, i32 }
          cleanup
  %59 = extractvalue { ptr, i32 } %58, 0
  store ptr %59, ptr %12, align 8
  %60 = extractvalue { ptr, i32 } %58, 1
  store i32 %60, ptr %13, align 4
  call void @_ZdlPv(ptr noundef %44) #16
  br label %72

61:                                               ; preds = %51
  %62 = getelementptr inbounds %class.QualityMapperPlugin, ptr %16, i32 0, i32 2
  %63 = load ptr, ptr %62, align 8
  call void @_ZN19QualityMapperDialog20drawTransferFunctionEv(ptr noundef nonnull align 8 dereferenceable(824) %63)
  %64 = getelementptr inbounds %class.QualityMapperPlugin, ptr %16, i32 0, i32 2
  %65 = load ptr, ptr %64, align 8
  call void @_ZN7QWidget4showEv(ptr noundef nonnull align 8 dereferenceable(48) %65)
  br label %66

66:                                               ; preds = %61, %38
  %67 = getelementptr inbounds %class.QualityMapperPlugin, ptr %16, i32 0, i32 2
  %68 = load ptr, ptr %67, align 8
  %69 = load ptr, ptr %8, align 8
  call void @_ZN7QObject7connectEPKS_PKcS1_S3_N2Qt14ConnectionTypeE(ptr dead_on_unwind writable sret(%"class.QMetaObject::Connection") align 8 %15, ptr noundef %68, ptr noundef @.str.9, ptr noundef %69, ptr noundef @.str.10, i32 noundef 0)
  call void @_ZN11QMetaObject10ConnectionD1Ev(ptr noundef nonnull align 8 dereferenceable(8) %15) #3
  store i1 true, ptr %5, align 1
  br label %70

70:                                               ; preds = %66, %56, %28, %18
  %71 = load i1, ptr %5, align 1
  ret i1 %71

72:                                               ; preds = %57, %37
  %73 = load ptr, ptr %12, align 8
  %74 = load i32, ptr %13, align 4
  %75 = insertvalue { ptr, i32 } poison, ptr %73, 0
  %76 = insertvalue { ptr, i32 } %75, i32 %74, 1
  resume { ptr, i32 } %76
}