; Function Attrs: mustprogress uwtable
define noundef zeroext i1 @_ZN19QualityMapperPlugin9startEditER9MeshModelP6GLAreaP26MLSceneGLSharedDataContext(ptr nocapture noundef nonnull align 8 dereferenceable(49) %0, ptr noundef nonnull align 8 dereferenceable(1288) %1, ptr noundef %2, ptr noundef %3) unnamed_addr #9 align 2 personality ptr @__gxx_personality_v0 {
  %5 = alloca %class.QString, align 8
  %6 = alloca %class.QString, align 8
  %7 = alloca %"class.QMetaObject::Connection", align 8
  %8 = tail call noundef zeroext i1 @_ZN19GLExtensionsManager34initializeGLextensions_notThrowingEv()
  br i1 %8, label %9, label %_ZN7QStringD2Ev.exit22

9:                                                ; preds = %4
  %10 = tail call noundef zeroext i1 @_ZNK9MeshModel11hasDataMaskEi(ptr noundef nonnull align 8 dereferenceable(1288) %1, i32 noundef 16)
  br i1 %10, label %27, label %11

11:                                               ; preds = %9
  call void @_ZNK11QMetaObject2trEPKcS1_i(ptr dead_on_unwind nonnull writable sret(%class.QString) align 8 %5, ptr noundef nonnull align 8 dereferenceable(48) @_ZN19QualityMapperPlugin16staticMetaObjectE, ptr noundef nonnull @.str.7, ptr noundef null, i32 noundef -1)
  invoke void @_ZNK11QMetaObject2trEPKcS1_i(ptr dead_on_unwind nonnull writable sret(%class.QString) align 8 %6, ptr noundef nonnull align 8 dereferenceable(48) @_ZN19QualityMapperPlugin16staticMetaObjectE, ptr noundef nonnull @.str.8, ptr noundef null, i32 noundef -1)
          to label %_ZN19QualityMapperPlugin2trEPKcS1_i.exit unwind label %22

_ZN19QualityMapperPlugin2trEPKcS1_i.exit:         ; preds = %11
  %12 = invoke noundef i32 @_ZN11QMessageBox7warningEP7QWidgetRK7QStringS4_6QFlagsINS_14StandardButtonEES6_(ptr noundef %2, ptr noundef nonnull align 8 dereferenceable(8) %5, ptr noundef nonnull align 8 dereferenceable(8) %6, i32 1024, i32 noundef 0)
          to label %13 unwind label %24

13:                                               ; preds = %_ZN19QualityMapperPlugin2trEPKcS1_i.exit
  %14 = load ptr, ptr %6, align 8
  %15 = load atomic i32, ptr %14 monotonic, align 4
  switch i32 %15, label %_ZN9QtPrivate8RefCount5derefEv.exit.i [
    i32 0, label %_ZN9QtPrivate8RefCount5derefEv.exit.thread2.i
    i32 -1, label %_ZN7QStringD2Ev.exit
  ]

_ZN9QtPrivate8RefCount5derefEv.exit.i:            ; preds = %13
  %16 = atomicrmw sub ptr %14, i32 1 seq_cst, align 4
  %.not.i = icmp eq i32 %16, 1
  br i1 %.not.i, label %_ZN9QtPrivate8RefCount5derefEv.exit._ZN9QtPrivate8RefCount5derefEv.exit.thread2_crit_edge.i, label %_ZN7QStringD2Ev.exit

_ZN9QtPrivate8RefCount5derefEv.exit._ZN9QtPrivate8RefCount5derefEv.exit.thread2_crit_edge.i: ; preds = %_ZN9QtPrivate8RefCount5derefEv.exit.i
  %.pre.i = load ptr, ptr %6, align 8
  br label %_ZN9QtPrivate8RefCount5derefEv.exit.thread2.i

_ZN9QtPrivate8RefCount5derefEv.exit.thread2.i:    ; preds = %_ZN9QtPrivate8RefCount5derefEv.exit._ZN9QtPrivate8RefCount5derefEv.exit.thread2_crit_edge.i, %13
  %17 = phi ptr [ %.pre.i, %_ZN9QtPrivate8RefCount5derefEv.exit._ZN9QtPrivate8RefCount5derefEv.exit.thread2_crit_edge.i ], [ %14, %13 ]
  call void @_ZN10QArrayData10deallocateEPS_mm(ptr noundef %17, i64 noundef 2, i64 noundef 8) #15
  br label %_ZN7QStringD2Ev.exit

_ZN7QStringD2Ev.exit:                             ; preds = %13, %_ZN9QtPrivate8RefCount5derefEv.exit.i, %_ZN9QtPrivate8RefCount5derefEv.exit.thread2.i
  %18 = load ptr, ptr %5, align 8
  %19 = load atomic i32, ptr %18 monotonic, align 4
  switch i32 %19, label %_ZN9QtPrivate8RefCount5derefEv.exit.i18 [
    i32 0, label %_ZN9QtPrivate8RefCount5derefEv.exit.thread2.i17
    i32 -1, label %_ZN7QStringD2Ev.exit22
  ]

_ZN9QtPrivate8RefCount5derefEv.exit.i18:          ; preds = %_ZN7QStringD2Ev.exit
  %20 = atomicrmw sub ptr %18, i32 1 seq_cst, align 4
  %.not.i19 = icmp eq i32 %20, 1
  br i1 %.not.i19, label %_ZN9QtPrivate8RefCount5derefEv.exit._ZN9QtPrivate8RefCount5derefEv.exit.thread2_crit_edge.i20, label %_ZN7QStringD2Ev.exit22

_ZN9QtPrivate8RefCount5derefEv.exit._ZN9QtPrivate8RefCount5derefEv.exit.thread2_crit_edge.i20: ; preds = %_ZN9QtPrivate8RefCount5derefEv.exit.i18
  %.pre.i21 = load ptr, ptr %5, align 8
  br label %_ZN9QtPrivate8RefCount5derefEv.exit.thread2.i17

_ZN9QtPrivate8RefCount5derefEv.exit.thread2.i17:  ; preds = %_ZN9QtPrivate8RefCount5derefEv.exit._ZN9QtPrivate8RefCount5derefEv.exit.thread2_crit_edge.i20, %_ZN7QStringD2Ev.exit
  %21 = phi ptr [ %.pre.i21, %_ZN9QtPrivate8RefCount5derefEv.exit._ZN9QtPrivate8RefCount5derefEv.exit.thread2_crit_edge.i20 ], [ %18, %_ZN7QStringD2Ev.exit ]
  call void @_ZN10QArrayData10deallocateEPS_mm(ptr noundef %21, i64 noundef 2, i64 noundef 8) #15
  br label %_ZN7QStringD2Ev.exit22

22:                                               ; preds = %11
  %23 = landingpad { ptr, i32 }
          cleanup
  br label %26

24:                                               ; preds = %_ZN19QualityMapperPlugin2trEPKcS1_i.exit
  %25 = landingpad { ptr, i32 }
          cleanup
  call void @_ZN7QStringD2Ev(ptr noundef nonnull align 8 dereferenceable(8) %6) #15
  br label %26

26:                                               ; preds = %24, %22
  %.pn = phi { ptr, i32 } [ %25, %24 ], [ %23, %22 ]
  call void @_ZN7QStringD2Ev(ptr noundef nonnull align 8 dereferenceable(8) %5) #15
  br label %44

27:                                               ; preds = %9
  tail call void @_ZN9MeshModel14updateDataMaskEi(ptr noundef nonnull align 8 dereferenceable(1288) %1, i32 noundef 24)
  %28 = getelementptr inbounds i8, ptr %0, i64 32
  %29 = load ptr, ptr %28, align 8
  %30 = icmp eq ptr %29, null
  br i1 %30, label %31, label %42

31:                                               ; preds = %27
  %32 = tail call noalias noundef nonnull dereferenceable(824) ptr @_Znwm(i64 noundef 824) #18
  %33 = invoke noundef ptr @_ZNK7QWidget6windowEv(ptr noundef nonnull align 8 dereferenceable(48) %2)
          to label %34 unwind label %37

34:                                               ; preds = %31
  invoke void @_ZN19QualityMapperDialogC1EP7QWidgetR9MeshModelP6GLAreaP26MLSceneGLSharedDataContext(ptr noundef nonnull align 8 dereferenceable(824) %32, ptr noundef %33, ptr noundef nonnull align 8 dereferenceable(1288) %1, ptr noundef nonnull %2, ptr noundef %3)
          to label %35 unwind label %37

35:                                               ; preds = %34
  store ptr %32, ptr %28, align 8
  %36 = tail call noundef zeroext i1 @_ZN19QualityMapperDialog22initEqualizerHistogramEv(ptr noundef nonnull align 8 dereferenceable(824) %32)
  br i1 %36, label %39, label %_ZN7QStringD2Ev.exit22

37:                                               ; preds = %34, %31
  %38 = landingpad { ptr, i32 }
          cleanup
  tail call void @_ZdlPv(ptr noundef nonnull %32) #14
  br label %44

39:                                               ; preds = %35
  %40 = load ptr, ptr %28, align 8
  tail call void @_ZN19QualityMapperDialog20drawTransferFunctionEv(ptr noundef nonnull align 8 dereferenceable(824) %40)
  %41 = load ptr, ptr %28, align 8
  tail call void @_ZN7QWidget4showEv(ptr noundef nonnull align 8 dereferenceable(48) %41)
  %.pre = load ptr, ptr %28, align 8
  br label %42

42:                                               ; preds = %39, %27
  %43 = phi ptr [ %.pre, %39 ], [ %29, %27 ]
  call void @_ZN7QObject7connectEPKS_PKcS1_S3_N2Qt14ConnectionTypeE(ptr dead_on_unwind nonnull writable sret(%"class.QMetaObject::Connection") align 8 %7, ptr noundef %43, ptr noundef nonnull @.str.9, ptr noundef %2, ptr noundef nonnull @.str.10, i32 noundef 0)
  call void @_ZN11QMetaObject10ConnectionD1Ev(ptr noundef nonnull align 8 dereferenceable(8) %7) #15
  br label %_ZN7QStringD2Ev.exit22

_ZN7QStringD2Ev.exit22:                           ; preds = %_ZN9QtPrivate8RefCount5derefEv.exit.thread2.i17, %_ZN9QtPrivate8RefCount5derefEv.exit.i18, %_ZN7QStringD2Ev.exit, %35, %4, %42
  %.013 = phi i1 [ true, %42 ], [ false, %4 ], [ false, %35 ], [ false, %_ZN7QStringD2Ev.exit ], [ false, %_ZN9QtPrivate8RefCount5derefEv.exit.i18 ], [ false, %_ZN9QtPrivate8RefCount5derefEv.exit.thread2.i17 ]
  ret i1 %.013

44:                                               ; preds = %37, %26
  %.pn15 = phi { ptr, i32 } [ %38, %37 ], [ %.pn, %26 ]
  resume { ptr, i32 } %.pn15
}